; Function Attrs: mustprogress nofree norecurse nosync nounwind willreturn memory(read, argmem: readwrite, inaccessiblemem: none) uwtable
define internal noundef i32 @H5HF__huge_bt2_filt_dir_compare(ptr noundef readonly captures(none) %0, ptr noundef readonly captures(none) %1, ptr noundef writeonly captures(none) %2) #1 {
  %4 = load i8, ptr @H5HF_init_g, align 1, !tbaa !3, !range !7, !noundef !8
  %5 = trunc nuw i8 %4 to i1
  %6 = load i8, ptr @H5_libterm_g, align 1, !range !7
  %7 = trunc nuw i8 %6 to i1
  %8 = xor i1 %7, true
  %9 = select i1 %5, i1 true, i1 %8
  br i1 %9, label %10, label %24, !prof !9

10:                                               ; preds = %3
  %11 = load i64, ptr %0, align 8, !tbaa !51
  %12 = load i64, ptr %1, align 8, !tbaa !51
  %13 = icmp ult i64 %11, %12
  br i1 %13, label %.sink.split, label %14

14:                                               ; preds = %10
  %15 = icmp ugt i64 %11, %12
  br i1 %15, label %.sink.split, label %16

16:                                               ; preds = %14
  %17 = getelementptr inbounds nuw i8, ptr %0, i64 8
  %18 = load i64, ptr %17, align 8, !tbaa !53
  %19 = getelementptr inbounds nuw i8, ptr %1, i64 8
  %20 = load i64, ptr %19, align 8, !tbaa !53
  %21 = icmp ult i64 %18, %20
  br i1 %21, label %.sink.split, label %22

22:                                               ; preds = %16
  %23 = icmp ugt i64 %18, %20
  %. = zext i1 %23 to i32
  br label %.sink.split

.sink.split:                                      ; preds = %22, %16, %14, %10
  %.sink = phi i32 [ -1, %10 ], [ 1, %14 ], [ -1, %16 ], [ %., %22 ]
  store i32 %.sink, ptr %2, align 4, !tbaa !18
  br label %24

24:                                               ; preds = %.sink.split, %3
  ret i32 0
}